; Function Attrs: mustprogress nounwind uwtable
define dso_local void @_ZNK5clang6interp13MemberPointer17toFunctionPointerERKNS0_7ContextE(ptr dead_on_unwind noalias nocapture writable writeonly sret(%"class.clang::interp::FunctionPointer") align 8 %0, ptr nocapture noundef nonnull readonly align 8 dereferenceable(72) %1, ptr nocapture noundef nonnull readonly align 8 dereferenceable(40) %2) local_unnamed_addr #0 align 2 {
  %4 = getelementptr inbounds nuw i8, ptr %2, i64 24
  %5 = load ptr, ptr %4, align 8
  %6 = getelementptr inbounds nuw i8, ptr %1, i64 56
  %7 = load ptr, ptr %6, align 8
  %8 = tail call noundef ptr @_ZN5clang6interp7Program11getFunctionEPKNS_12FunctionDeclE(ptr noundef nonnull align 8 dereferenceable(328) %5, ptr noundef %7) #4
  store ptr %8, ptr %0, align 8
  %9 = getelementptr inbounds nuw i8, ptr %0, i64 8
  store i64 0, ptr %9, align 8
  %10 = getelementptr inbounds nuw i8, ptr %0, i64 16
  store i8 1, ptr %10, align 8
  ret void
}